Certificate:
    Data:
        Version: 3 (0x2)
        Serial Number: 2 (0x2)
        Signature Algorithm: sha1WithRSAEncryption
        Issuer: CN=htt.ca, C=CH, ST=Aargau, L=Wohlen, O=htt.sourceforge.net/emailAddress=ia97lies@sourceforge.net
        Validity
            Not Before: Jan 29 21:03:05 2012 GMT
            Not After : Jan 26 21:03:05 2022 GMT
        Subject: C=CH, ST=Aargau, O=htt.sourceforge.net, CN=htt.ca/emailAddress=ia97lies@sourceforge.net
        Subject Public Key Info:
            Public Key Algorithm: rsaEncryption
            RSA Public Key: (1024 bit)
                Modulus (1024 bit):
                    00:cc:f1:b6:ff:a6:ff:cb:ed:0a:44:a8:8c:41:d7:
                    7c:76:04:95:ea:08:cb:b4:66:2e:25:d4:48:cd:d2:
                    9e:37:a6:71:d5:71:67:5b:06:fc:93:bf:b9:b6:94:
                    77:5e:3d:bb:a4:9b:53:4f:bc:fb:82:a7:16:21:b2:
                    76:d2:de:13:66:bc:8b:ca:9b:aa:4f:d7:f2:67:4c:
                    55:0d:44:e4:ed:89:a8:c7:fe:74:1e:ef:de:8d:88:
                    86:21:a9:ab:24:4d:80:a9:e8:92:8f:44:3a:fd:67:
                    38:25:cc:13:88:df:07:f0:81:e5:a7:4b:a5:63:8d:
                    d4:37:2a:e0:ed:38:32:78:a9
                Exponent: 65537 (0x10001)
        X509v3 extensions:
            X509v3 Basic Constraints: 
                CA:FALSE
            X509v3 Subject Key Identifier: 
                AE:8B:5E:39:20:C7:0F:F2:56:DC:CA:42:BC:F4:E0:AD:00:11:54:E0
            X509v3 Authority Key Identifier: 
                keyid:14:DE:EE:AC:9E:C4:12:32:E5:0B:26:7F:86:53:3D:58:D5:00:CD:E2
                DirName:/CN=htt.ca/C=CH/ST=Aargau/L=Wohlen/O=htt.sourceforge.net/emailAddress=ia97lies@sourceforge.net
                serial:9F:A3:EC:62:5E:D7:75:80

    Signature Algorithm: sha1WithRSAEncryption
        07:a4:05:b3:d5:6a:d1:ce:e1:23:ae:36:66:d7:56:4f:0b:5e:
        3b:e9:e9:bb:52:70:37:aa:e8:56:74:a2:f5:c2:0b:04:58:15:
        3b:b9:85:62:a2:68:34:ed:74:13:af:49:48:81:3a:09:94:b8:
        03:39:2b:bc:14:0b:6a:2e:8c:44:92:dd:45:f5:41:61:be:53:
        01:51:04:5a:b3:09:69:5e:d5:72:ab:0e:29:fa:44:f9:7e:30:
        17:31:25:0d:01:26:c4:d1:2e:c1:c2:03:4b:65:1a:19:90:e9:
        ff:4c:a5:c9:fb:bd:06:28:48:86:a8:0e:80:da:6c:56:a2:a4:
        da:68
-----BEGIN CERTIFICATE-----
MIIDYTCCAsqgAwIBAgIBAjANBgkqhkiG9w0BAQUFADCBhzEPMA0GA1UEAxMGaHR0
LmNhMQswCQYDVQQGEwJDSDEPMA0GA1UECBMGQWFyZ2F1MQ8wDQYDVQQHEwZXb2hs
ZW4xHDAaBgNVBAoTE2h0dC5zb3VyY2Vmb3JnZS5uZXQxJzAlBgkqhkiG9w0BCQEW
GGlhOTdsaWVzQHNvdXJjZWZvcmdlLm5ldDAeFw0xMjAxMjkyMTAzMDVaFw0yMjAx
MjYyMTAzMDVaMHYxCzAJBgNVBAYTAkNIMQ8wDQYDVQQIEwZBYXJnYXUxHDAaBgNV
BAoTE2h0dC5zb3VyY2Vmb3JnZS5uZXQxDzANBgNVBAMTBmh0dC5jYTEnMCUGCSqG
SIb3DQEJARYYaWE5N2xpZXNAc291cmNlZm9yZ2UubmV0MIGfMA0GCSqGSIb3DQEB
AQUAA4GNADCBiQKBgQDM8bb/pv/L7QpEqIxB13x2BJXqCMu0Zi4l1EjN0p43pnHV
cWdbBvyTv7m2lHdePbukm1NPvPuCpxYhsnbS3hNmvIvKm6pP1/JnTFUNROTtiajH
/nQe796NiIYhqaskTYCp6JKPRDr9ZzglzBOI3wfwgeWnS6VjjdQ3KuDtODJ4qQID
AQABo4HsMIHpMAkGA1UdEwQCMAAwHQYDVR0OBBYEFK6LXjkgxw/yVtzKQrz04K0A
EVTgMIG8BgNVHSMEgbQwgbGAFBTe7qyexBIy5Qsmf4ZTPVjVAM3ioYGNpIGKMIGH
MQ8wDQYDVQQDEwZodHQuY2ExCzAJBgNVBAYTAkNIMQ8wDQYDVQQIEwZBYXJnYXUx
DzANBgNVBAcTBldvaGxlbjEcMBoGA1UEChMTaHR0LnNvdXJjZWZvcmdlLm5ldDEn
MCUGCSqGSIb3DQEJARYYaWE5N2xpZXNAc291cmNlZm9yZ2UubmV0ggkAn6PsYl7X
dYAwDQYJKoZIhvcNAQEFBQADgYEAB6QFs9Vq0c7hI642ZtdWTwteO+npu1JwN6ro
VnSi9cILBFgVO7mFYqJoNO10E69JSIE6CZS4AzkrvBQLai6MRJLdRfVBYb5TAVEE
WrMJaV7VcqsOKfpE+X4wFzElDQEmxNEuwcIDS2UaGZDp/0ylyfu9BihIhqgOgNps
VqKk2mg=
-----END CERTIFICATE-----
