Certificate:
    Data:
        Version: 3 (0x2)
        Serial Number: 2 (0x2)
    Signature Algorithm: sha1WithRSAEncryption
        Issuer: CN=htt.ca, C=CH, ST=Aargau, L=Wohlen, O=htt.sourceforge.net/emailAddress=ia97lies@sourceforge.net
        Validity
            Not Before: Apr 29 15:05:37 2013 GMT
            Not After : Apr 27 15:05:37 2023 GMT
        Subject: C=CH, ST=Aargau, O=htt.sourceforge.net, CN=htt.ca/emailAddress=ia97lies@sourceforge.net
        Subject Public Key Info:
            Public Key Algorithm: rsaEncryption
                Public-Key: (1024 bit)
                Modulus:
                    00:bf:0d:89:da:90:93:3b:41:fb:48:e9:a1:95:41:
                    18:9f:fd:4e:63:05:60:a4:7e:49:1a:e1:89:e0:2f:
                    08:fb:bd:82:cb:10:26:af:fa:dc:b6:34:3f:c5:54:
                    60:b9:17:14:83:86:cf:d2:ff:d1:32:c8:e8:b8:74:
                    ab:9c:18:7d:b4:84:6d:16:e9:82:0b:9a:64:70:a9:
                    1c:fe:55:d3:60:70:63:a9:4c:fd:e5:dc:cb:bc:63:
                    c7:63:83:7d:1a:75:27:30:68:61:d1:ee:f5:05:1b:
                    4f:26:7a:c9:35:c3:3c:8e:a5:bd:a1:6a:41:d8:13:
                    87:1d:88:60:9a:cd:c5:73:d7
                Exponent: 65537 (0x10001)
        X509v3 extensions:
            X509v3 Basic Constraints: 
                CA:FALSE
            X509v3 Subject Key Identifier: 
                B4:72:A0:C6:77:9B:81:EE:91:96:9F:52:2A:EB:5E:14:08:1B:9E:6F
            X509v3 Authority Key Identifier: 
                keyid:9B:33:23:DA:C1:E6:B9:58:E1:86:25:5B:89:2A:A9:97:E0:1E:C2:A0
                DirName:/CN=htt.ca/C=CH/ST=Aargau/L=Wohlen/O=htt.sourceforge.net/emailAddress=ia97lies@sourceforge.net
                serial:C0:9D:BC:73:B9:AA:80:13

    Signature Algorithm: sha1WithRSAEncryption
         98:d9:b4:9c:c3:03:63:cc:48:14:34:7c:4b:74:50:b9:ca:94:
         e5:a9:18:45:3b:4b:2d:8c:88:cb:98:27:ed:83:1b:89:df:5f:
         91:4b:6f:21:a5:75:46:9f:98:b2:4a:a9:4f:ca:b4:e9:54:ef:
         b6:de:f0:8a:db:eb:0c:0a:9a:c7:be:53:49:de:a0:1f:4c:4d:
         7e:37:1b:13:b7:f5:f9:33:74:b3:12:e1:ba:c5:6e:1f:93:b4:
         51:cd:b1:76:6b:f4:89:39:65:71:7b:1d:0b:28:89:33:16:34:
         1e:50:06:c3:0a:d9:7d:55:1e:4b:47:df:86:4f:69:d5:ff:c1:
         e7:1f
-----BEGIN CERTIFICATE-----
MIIDYTCCAsqgAwIBAgIBAjANBgkqhkiG9w0BAQUFADCBhzEPMA0GA1UEAxMGaHR0
LmNhMQswCQYDVQQGEwJDSDEPMA0GA1UECBMGQWFyZ2F1MQ8wDQYDVQQHEwZXb2hs
ZW4xHDAaBgNVBAoTE2h0dC5zb3VyY2Vmb3JnZS5uZXQxJzAlBgkqhkiG9w0BCQEW
GGlhOTdsaWVzQHNvdXJjZWZvcmdlLm5ldDAeFw0xMzA0MjkxNTA1MzdaFw0yMzA0
MjcxNTA1MzdaMHYxCzAJBgNVBAYTAkNIMQ8wDQYDVQQIEwZBYXJnYXUxHDAaBgNV
BAoTE2h0dC5zb3VyY2Vmb3JnZS5uZXQxDzANBgNVBAMTBmh0dC5jYTEnMCUGCSqG
SIb3DQEJARYYaWE5N2xpZXNAc291cmNlZm9yZ2UubmV0MIGfMA0GCSqGSIb3DQEB
AQUAA4GNADCBiQKBgQC/DYnakJM7QftI6aGVQRif/U5jBWCkfkka4YngLwj7vYLL
ECav+ty2ND/FVGC5FxSDhs/S/9EyyOi4dKucGH20hG0W6YILmmRwqRz+VdNgcGOp
TP3l3Mu8Y8djg30adScwaGHR7vUFG08mesk1wzyOpb2hakHYE4cdiGCazcVz1wID
AQABo4HsMIHpMAkGA1UdEwQCMAAwHQYDVR0OBBYEFLRyoMZ3m4HukZafUirrXhQI
G55vMIG8BgNVHSMEgbQwgbGAFJszI9rB5rlY4YYlW4kqqZfgHsKgoYGNpIGKMIGH
MQ8wDQYDVQQDEwZodHQuY2ExCzAJBgNVBAYTAkNIMQ8wDQYDVQQIEwZBYXJnYXUx
DzANBgNVBAcTBldvaGxlbjEcMBoGA1UEChMTaHR0LnNvdXJjZWZvcmdlLm5ldDEn
MCUGCSqGSIb3DQEJARYYaWE5N2xpZXNAc291cmNlZm9yZ2UubmV0ggkAwJ28c7mq
gBMwDQYJKoZIhvcNAQEFBQADgYEAmNm0nMMDY8xIFDR8S3RQucqU5akYRTtLLYyI
y5gn7YMbid9fkUtvIaV1Rp+YskqpT8q06VTvtt7witvrDAqax75TSd6gH0xNfjcb
E7f1+TN0sxLhusVuH5O0Uc2xdmv0iTllcXsdCyiJMxY0HlAGwwrZfVUeS0ffhk9p
1f/B5x8=
-----END CERTIFICATE-----
