Certificate:
    Data:
        Version: 3 (0x2)
        Serial Number: 2 (0x2)
        Signature Algorithm: sha1WithRSAEncryption
        Issuer: CN=htt.ca, C=CH, ST=Aargau, L=Wohlen, O=htt.sourceforge.net/emailAddress=ia97lies@sourceforge.net
        Validity
            Not Before: Jan 13 22:10:03 2011 GMT
            Not After : Jan 10 22:10:03 2021 GMT
        Subject: C=CH, ST=Aargau, O=htt.sourceforge.net, CN=htt.ca/emailAddress=ia97lies@sourceforge.net
        Subject Public Key Info:
            Public Key Algorithm: rsaEncryption
            RSA Public Key: (1024 bit)
                Modulus (1024 bit):
                    00:d8:80:1b:11:6e:9d:6f:18:03:df:64:6d:f5:8e:
                    34:01:97:2f:40:c2:42:5a:10:66:f7:bc:9e:6c:d4:
                    76:31:a0:6e:45:b4:a5:25:73:ff:bc:84:49:7b:b5:
                    7f:93:91:e0:71:6f:77:8c:00:5d:e1:dd:88:d7:f6:
                    23:03:36:4c:61:e8:7e:5c:b2:93:04:23:c1:59:e0:
                    33:a5:f6:8a:74:39:51:49:9a:7e:cb:74:aa:6f:80:
                    db:1c:a0:d0:ee:ec:84:bd:c8:02:3f:8a:b5:78:ca:
                    9d:bb:ed:6e:f5:7f:77:ea:51:2d:a9:6c:88:6f:20:
                    81:7d:98:e0:1a:05:15:c4:e3
                Exponent: 65537 (0x10001)
        X509v3 extensions:
            X509v3 Basic Constraints: 
                CA:FALSE
            X509v3 Subject Key Identifier: 
                E6:0D:32:37:CC:D2:E4:B8:E8:F2:3C:65:37:7A:3B:B7:50:C1:7D:5C
            X509v3 Authority Key Identifier: 
                keyid:19:D2:65:37:28:0B:1E:63:3B:D4:B5:1F:F5:6E:23:74:3C:E8:F4:51
                DirName:/CN=htt.ca/C=CH/ST=Aargau/L=Wohlen/O=htt.sourceforge.net/emailAddress=ia97lies@sourceforge.net
                serial:9E:72:F1:A1:B7:7B:68:77

    Signature Algorithm: sha1WithRSAEncryption
        89:d2:bc:a9:31:12:96:20:37:25:6d:cd:44:f2:d8:cb:4f:34:
        6f:7a:12:01:83:ab:7b:df:fb:f2:04:a5:95:34:b5:45:f8:3a:
        c9:8e:60:3d:2a:fe:63:ff:81:7f:00:35:ee:1e:80:49:9d:c3:
        4d:31:62:e1:a1:f1:76:c6:ad:15:0d:60:b5:74:a2:d2:70:68:
        2e:38:6c:b3:4b:e9:41:d0:b2:fa:54:94:7e:44:de:a0:45:01:
        9b:db:59:b8:ec:5e:d7:d8:b8:d5:78:b5:a9:2c:b3:92:1f:4f:
        21:83:6c:c1:89:f3:b1:42:a7:3f:17:a6:9a:49:e8:54:cb:24:
        4d:f8
-----BEGIN CERTIFICATE-----
MIIDYTCCAsqgAwIBAgIBAjANBgkqhkiG9w0BAQUFADCBhzEPMA0GA1UEAxMGaHR0
LmNhMQswCQYDVQQGEwJDSDEPMA0GA1UECBMGQWFyZ2F1MQ8wDQYDVQQHEwZXb2hs
ZW4xHDAaBgNVBAoTE2h0dC5zb3VyY2Vmb3JnZS5uZXQxJzAlBgkqhkiG9w0BCQEW
GGlhOTdsaWVzQHNvdXJjZWZvcmdlLm5ldDAeFw0xMTAxMTMyMjEwMDNaFw0yMTAx
MTAyMjEwMDNaMHYxCzAJBgNVBAYTAkNIMQ8wDQYDVQQIEwZBYXJnYXUxHDAaBgNV
BAoTE2h0dC5zb3VyY2Vmb3JnZS5uZXQxDzANBgNVBAMTBmh0dC5jYTEnMCUGCSqG
SIb3DQEJARYYaWE5N2xpZXNAc291cmNlZm9yZ2UubmV0MIGfMA0GCSqGSIb3DQEB
AQUAA4GNADCBiQKBgQDYgBsRbp1vGAPfZG31jjQBly9AwkJaEGb3vJ5s1HYxoG5F
tKUlc/+8hEl7tX+TkeBxb3eMAF3h3YjX9iMDNkxh6H5cspMEI8FZ4DOl9op0OVFJ
mn7LdKpvgNscoNDu7IS9yAI/irV4yp277W71f3fqUS2pbIhvIIF9mOAaBRXE4wID
AQABo4HsMIHpMAkGA1UdEwQCMAAwHQYDVR0OBBYEFOYNMjfM0uS46PI8ZTd6O7dQ
wX1cMIG8BgNVHSMEgbQwgbGAFBnSZTcoCx5jO9S1H/VuI3Q86PRRoYGNpIGKMIGH
MQ8wDQYDVQQDEwZodHQuY2ExCzAJBgNVBAYTAkNIMQ8wDQYDVQQIEwZBYXJnYXUx
DzANBgNVBAcTBldvaGxlbjEcMBoGA1UEChMTaHR0LnNvdXJjZWZvcmdlLm5ldDEn
MCUGCSqGSIb3DQEJARYYaWE5N2xpZXNAc291cmNlZm9yZ2UubmV0ggkAnnLxobd7
aHcwDQYJKoZIhvcNAQEFBQADgYEAidK8qTESliA3JW3NRPLYy080b3oSAYOre9/7
8gSllTS1Rfg6yY5gPSr+Y/+BfwA17h6ASZ3DTTFi4aHxdsatFQ1gtXSi0nBoLjhs
s0vpQdCy+lSUfkTeoEUBm9tZuOxe19i41Xi1qSyzkh9PIYNswYnzsUKnPxemmkno
VMskTfg=
-----END CERTIFICATE-----
