Certificate:
    Data:
        Version: 3 (0x2)
        Serial Number: 1 (0x1)
        Signature Algorithm: sha1WithRSAEncryption
        Issuer: CN=htt.ca, C=CH, ST=Aargau, L=Wohlen, O=htt.sourceforge.net/emailAddress=ia97lies@sourceforge.net
        Validity
            Not Before: Jan 13 22:10:03 2011 GMT
            Not After : Jan 10 22:10:03 2021 GMT
        Subject: C=CH, ST=Aargau, O=htt.sourceforge.net, CN=htt.ca/emailAddress=ia97lies@sourceforge.net
        Subject Public Key Info:
            Public Key Algorithm: rsaEncryption
            RSA Public Key: (1024 bit)
                Modulus (1024 bit):
                    00:d4:18:aa:42:96:18:73:75:06:05:13:e0:3e:44:
                    ea:d4:0a:18:0d:8a:f0:de:ad:49:74:7d:3b:8f:87:
                    c1:0e:d6:3e:2c:2e:39:55:50:cf:2c:d8:fb:83:03:
                    87:0a:47:e4:2f:53:b7:0b:2c:d7:f7:c5:c5:da:bf:
                    ff:b9:f0:11:ce:2a:2b:4f:66:7c:f9:33:15:f7:0a:
                    0b:1a:54:c5:11:56:8a:be:18:b1:33:3c:fa:68:9d:
                    9a:ef:e1:2a:20:ed:8d:78:b5:70:2b:6b:d8:7c:4d:
                    23:df:15:7f:e8:05:d7:77:e5:b6:34:b9:04:c3:bc:
                    8b:87:82:f6:bb:9f:31:58:c3
                Exponent: 65537 (0x10001)
        X509v3 extensions:
            X509v3 Basic Constraints: 
                CA:FALSE
            X509v3 Subject Key Identifier: 
                C8:AA:5D:EF:44:D6:2A:B6:39:89:9C:14:25:F4:EA:3A:3F:C1:B0:C8
            X509v3 Authority Key Identifier: 
                keyid:19:D2:65:37:28:0B:1E:63:3B:D4:B5:1F:F5:6E:23:74:3C:E8:F4:51
                DirName:/CN=htt.ca/C=CH/ST=Aargau/L=Wohlen/O=htt.sourceforge.net/emailAddress=ia97lies@sourceforge.net
                serial:9E:72:F1:A1:B7:7B:68:77

    Signature Algorithm: sha1WithRSAEncryption
        7f:05:9d:2a:48:51:4c:47:e2:83:94:11:a8:b6:95:fe:ee:cd:
        ce:2c:28:fa:1b:a8:d0:2b:ab:02:ea:cb:43:35:ed:f8:1b:a7:
        83:98:8d:a8:30:32:b4:8a:ce:8d:fa:be:37:b7:3e:e7:38:9c:
        dc:12:2d:44:c3:0e:df:4f:fd:27:9a:93:35:a2:4e:c0:d7:69:
        85:18:ce:8b:7f:72:90:57:2a:c7:3d:e4:0d:f6:64:9c:53:6d:
        8b:4a:d8:74:00:f1:49:a7:09:2b:33:6c:a9:19:61:ad:0f:c8:
        92:b5:e1:65:6a:36:15:33:89:1d:75:bc:ff:ec:73:34:56:f2:
        78:5d
-----BEGIN CERTIFICATE-----
MIIDYTCCAsqgAwIBAgIBATANBgkqhkiG9w0BAQUFADCBhzEPMA0GA1UEAxMGaHR0
LmNhMQswCQYDVQQGEwJDSDEPMA0GA1UECBMGQWFyZ2F1MQ8wDQYDVQQHEwZXb2hs
ZW4xHDAaBgNVBAoTE2h0dC5zb3VyY2Vmb3JnZS5uZXQxJzAlBgkqhkiG9w0BCQEW
GGlhOTdsaWVzQHNvdXJjZWZvcmdlLm5ldDAeFw0xMTAxMTMyMjEwMDNaFw0yMTAx
MTAyMjEwMDNaMHYxCzAJBgNVBAYTAkNIMQ8wDQYDVQQIEwZBYXJnYXUxHDAaBgNV
BAoTE2h0dC5zb3VyY2Vmb3JnZS5uZXQxDzANBgNVBAMTBmh0dC5jYTEnMCUGCSqG
SIb3DQEJARYYaWE5N2xpZXNAc291cmNlZm9yZ2UubmV0MIGfMA0GCSqGSIb3DQEB
AQUAA4GNADCBiQKBgQDUGKpClhhzdQYFE+A+ROrUChgNivDerUl0fTuPh8EO1j4s
LjlVUM8s2PuDA4cKR+QvU7cLLNf3xcXav/+58BHOKitPZnz5MxX3CgsaVMURVoq+
GLEzPPponZrv4Sog7Y14tXAra9h8TSPfFX/oBdd35bY0uQTDvIuHgva7nzFYwwID
AQABo4HsMIHpMAkGA1UdEwQCMAAwHQYDVR0OBBYEFMiqXe9E1iq2OYmcFCX06jo/
wbDIMIG8BgNVHSMEgbQwgbGAFBnSZTcoCx5jO9S1H/VuI3Q86PRRoYGNpIGKMIGH
MQ8wDQYDVQQDEwZodHQuY2ExCzAJBgNVBAYTAkNIMQ8wDQYDVQQIEwZBYXJnYXUx
DzANBgNVBAcTBldvaGxlbjEcMBoGA1UEChMTaHR0LnNvdXJjZWZvcmdlLm5ldDEn
MCUGCSqGSIb3DQEJARYYaWE5N2xpZXNAc291cmNlZm9yZ2UubmV0ggkAnnLxobd7
aHcwDQYJKoZIhvcNAQEFBQADgYEAfwWdKkhRTEfig5QRqLaV/u7Nziwo+huo0Cur
AurLQzXt+Bung5iNqDAytIrOjfq+N7c+5zic3BItRMMO30/9J5qTNaJOwNdphRjO
i39ykFcqxz3kDfZknFNti0rYdADxSacJKzNsqRlhrQ/IkrXhZWo2FTOJHXW8/+xz
NFbyeF0=
-----END CERTIFICATE-----
